Certificate:
    Data:
        Version: 3 (0x2)
        Serial Number: 96 (0x60)
    Signature Algorithm: sha256WithRSAEncryption
        Issuer: C=GR, ST=Attiki, L=Athens, O=RAWFIE-DI, OU=RAWFIEITUnit, CN=RAWFIE-DI CA/name=EasyRSA/emailAddress=contact@rawfie.eu
        Validity
            Not Before: Apr 12 08:47:36 2017 GMT
            Not After : Apr 10 08:47:36 2027 GMT
        Subject: C=GR, ST=Attiki, L=Athens, O=RAWFIE-DI, OU=RAWFIEITUnit, CN=dfki.altus.niriis.usv.8/name=EasyRSA/emailAddress=contact@rawfie.eu
        Subject Public Key Info:
            Public Key Algorithm: rsaEncryption
                Public-Key: (2048 bit)
                Modulus:
                    00:ae:d7:0a:bf:e8:f9:a6:d1:96:bb:1c:04:f3:ca:
                    d1:1a:91:79:0a:e8:fe:15:52:13:b1:6a:bc:49:30:
                    10:db:8e:10:ca:31:21:5a:5a:92:68:59:5e:1f:7a:
                    ee:63:3f:de:c8:73:fc:6a:42:23:fb:79:03:87:aa:
                    61:dd:26:43:c9:4b:7e:37:07:e9:c7:3c:08:ee:d0:
                    d4:7d:07:a6:8b:80:a8:70:c8:4c:85:5f:30:33:62:
                    4f:46:e8:31:19:6b:8b:69:c5:45:0c:02:71:7d:91:
                    bc:7f:07:c5:00:e0:80:18:43:93:86:eb:16:32:dc:
                    74:96:a0:52:d5:1b:81:4b:f7:d4:13:ba:20:5f:a1:
                    55:b8:05:e9:3d:28:f8:84:92:83:8a:13:c1:7a:84:
                    f2:7a:a9:62:b1:05:ed:a3:69:0c:6a:5a:e4:2c:19:
                    0d:f8:36:6f:48:51:18:f7:ec:68:35:de:86:dc:18:
                    57:54:13:d6:8b:09:b3:f2:fc:94:9e:60:67:45:21:
                    6f:cb:c1:68:75:c5:69:b5:f3:5d:e6:6e:90:42:04:
                    4e:d8:db:5f:ac:5a:d1:51:a7:da:9a:68:19:06:fc:
                    ee:c1:06:51:00:93:18:af:8c:e4:94:08:70:22:6e:
                    90:a3:e1:f1:7b:7c:5f:8b:bb:8a:b3:46:58:8f:38:
                    07:7d
                Exponent: 65537 (0x10001)
        X509v3 extensions:
            X509v3 Basic Constraints: 
                CA:FALSE
            Netscape Comment: 
                Easy-RSA Generated Certificate
            X509v3 Subject Key Identifier: 
                AF:62:33:69:FF:1A:F4:8A:7C:CC:0C:45:E7:E9:69:05:0B:B5:E6:94
            X509v3 Authority Key Identifier: 
                keyid:91:A4:1F:AE:2C:87:BB:90:C0:88:DD:63:30:07:C3:53:A5:3A:6A:93
                DirName:/C=GR/ST=Attiki/L=Athens/O=RAWFIE-DI/OU=RAWFIEITUnit/CN=RAWFIE-DI CA/name=EasyRSA/emailAddress=contact@rawfie.eu
                serial:C0:E6:1C:9A:D1:71:B3:B5

            X509v3 Extended Key Usage: 
                TLS Web Client Authentication
            X509v3 Key Usage: 
                Digital Signature
            X509v3 Subject Alternative Name: 
                DNS:dfki.altus.niriis.usv.8
    Signature Algorithm: sha256WithRSAEncryption
         93:ad:c9:12:2a:89:47:64:b5:a2:45:3d:69:fd:ae:dc:3b:2f:
         96:95:6d:46:a7:f9:a7:de:8c:b4:f8:70:91:7e:9c:3c:b0:64:
         52:c8:2b:b9:a8:21:2b:0b:0b:b5:cf:39:c6:73:98:ea:68:73:
         d5:b8:96:d0:47:74:8b:fe:64:3a:46:22:e1:96:14:c1:5c:5c:
         3b:7e:ec:ed:19:41:75:aa:71:76:ff:fd:9e:bb:23:e0:f8:80:
         e9:0b:c6:c9:e2:aa:5f:b2:92:fc:55:ae:2a:0b:b3:49:fb:48:
         39:d8:d0:b9:88:ef:f0:e4:2b:d2:e1:72:f2:02:a8:52:56:72:
         ac:0e:d0:cc:11:10:76:5a:9c:77:88:dd:ce:df:3f:85:a9:93:
         b3:c6:d6:2a:65:93:56:85:df:17:ee:83:34:d4:24:90:48:a7:
         4b:68:48:19:f9:40:62:15:b5:04:ec:59:c2:ab:31:4d:d8:d3:
         b2:5c:01:cc:34:c3:3a:81:fb:85:c3:e2:b6:17:5e:45:7f:d6:
         dd:92:ab:04:cf:36:26:65:8b:15:c9:20:08:d1:6d:a9:6c:be:
         5e:8e:8b:f0:a8:35:01:03:93:1f:d1:cd:d7:7a:27:d2:d1:5b:
         2c:5b:6d:78:94:c8:90:a9:39:48:c2:50:dd:f8:47:0a:70:b6:
         f8:97:46:25
-----BEGIN CERTIFICATE-----
MIIFVDCCBDygAwIBAgIBYDANBgkqhkiG9w0BAQsFADCBpTELMAkGA1UEBhMCR1Ix
DzANBgNVBAgTBkF0dGlraTEPMA0GA1UEBxMGQXRoZW5zMRIwEAYDVQQKEwlSQVdG
SUUtREkxFTATBgNVBAsTDFJBV0ZJRUlUVW5pdDEVMBMGA1UEAxMMUkFXRklFLURJ
IENBMRAwDgYDVQQpEwdFYXN5UlNBMSAwHgYJKoZIhvcNAQkBFhFjb250YWN0QHJh
d2ZpZS5ldTAeFw0xNzA0MTIwODQ3MzZaFw0yNzA0MTAwODQ3MzZaMIGwMQswCQYD
VQQGEwJHUjEPMA0GA1UECBMGQXR0aWtpMQ8wDQYDVQQHEwZBdGhlbnMxEjAQBgNV
BAoTCVJBV0ZJRS1ESTEVMBMGA1UECxMMUkFXRklFSVRVbml0MSAwHgYDVQQDExdk
ZmtpLmFsdHVzLm5pcmlpcy51c3YuODEQMA4GA1UEKRMHRWFzeVJTQTEgMB4GCSqG
SIb3DQEJARYRY29udGFjdEByYXdmaWUuZXUwggEiMA0GCSqGSIb3DQEBAQUAA4IB
DwAwggEKAoIBAQCu1wq/6Pmm0Za7HATzytEakXkK6P4VUhOxarxJMBDbjhDKMSFa
WpJoWV4feu5jP97Ic/xqQiP7eQOHqmHdJkPJS343B+nHPAju0NR9B6aLgKhwyEyF
XzAzYk9G6DEZa4tpxUUMAnF9kbx/B8UA4IAYQ5OG6xYy3HSWoFLVG4FL99QTuiBf
oVW4Bek9KPiEkoOKE8F6hPJ6qWKxBe2jaQxqWuQsGQ34Nm9IURj37Gg13obcGFdU
E9aLCbPy/JSeYGdFIW/LwWh1xWm1813mbpBCBE7Y21+sWtFRp9qaaBkG/O7BBlEA
kxivjOSUCHAibpCj4fF7fF+Lu4qzRliPOAd9AgMBAAGjggGAMIIBfDAJBgNVHRME
AjAAMC0GCWCGSAGG+EIBDQQgFh5FYXN5LVJTQSBHZW5lcmF0ZWQgQ2VydGlmaWNh
dGUwHQYDVR0OBBYEFK9iM2n/GvSKfMwMRefpaQULteaUMIHaBgNVHSMEgdIwgc+A
FJGkH64sh7uQwIjdYzAHw1OlOmqToYGrpIGoMIGlMQswCQYDVQQGEwJHUjEPMA0G
A1UECBMGQXR0aWtpMQ8wDQYDVQQHEwZBdGhlbnMxEjAQBgNVBAoTCVJBV0ZJRS1E
STEVMBMGA1UECxMMUkFXRklFSVRVbml0MRUwEwYDVQQDEwxSQVdGSUUtREkgQ0Ex
EDAOBgNVBCkTB0Vhc3lSU0ExIDAeBgkqhkiG9w0BCQEWEWNvbnRhY3RAcmF3Zmll
LmV1ggkAwOYcmtFxs7UwEwYDVR0lBAwwCgYIKwYBBQUHAwIwCwYDVR0PBAQDAgeA
MCIGA1UdEQQbMBmCF2Rma2kuYWx0dXMubmlyaWlzLnVzdi44MA0GCSqGSIb3DQEB
CwUAA4IBAQCTrckSKolHZLWiRT1p/a7cOy+WlW1Gp/mn3oy0+HCRfpw8sGRSyCu5
qCErCwu1zznGc5jqaHPVuJbQR3SL/mQ6RiLhlhTBXFw7fuztGUF1qnF2//2euyPg
+IDpC8bJ4qpfspL8Va4qC7NJ+0g52NC5iO/w5CvS4XLyAqhSVnKsDtDMERB2Wpx3
iN3O3z+FqZOzxtYqZZNWhd8X7oM01CSQSKdLaEgZ+UBiFbUE7FnCqzFN2NOyXAHM
NMM6gfuFw+K2F15Ff9bdkqsEzzYmZYsVySAI0W2pbL5ejovwqDUBA5Mf0c3XeifS
0VssW214lMiQqTlIwlDd+EcKcLb4l0Yl
-----END CERTIFICATE-----
