Certificate:
    Data:
        Version: 3 (0x2)
        Serial Number: 97 (0x61)
    Signature Algorithm: sha256WithRSAEncryption
        Issuer: C=GR, ST=Attiki, L=Athens, O=RAWFIE-DI, OU=RAWFIEITUnit, CN=RAWFIE-DI CA/name=EasyRSA/emailAddress=contact@rawfie.eu
        Validity
            Not Before: Apr 12 08:47:45 2017 GMT
            Not After : Apr 10 08:47:45 2027 GMT
        Subject: C=GR, ST=Attiki, L=Athens, O=RAWFIE-DI, OU=RAWFIEITUnit, CN=dfki.altus.niriis.usv.9/name=EasyRSA/emailAddress=contact@rawfie.eu
        Subject Public Key Info:
            Public Key Algorithm: rsaEncryption
                Public-Key: (2048 bit)
                Modulus:
                    00:a3:69:d8:a3:6b:05:8d:b6:02:7d:39:89:cf:2b:
                    25:21:7a:ff:81:4e:96:33:c6:01:06:17:a6:8a:15:
                    55:d5:a7:49:6b:94:76:25:c8:07:b2:75:95:a1:97:
                    2b:21:fe:09:e2:c4:17:6c:05:61:68:63:07:90:4f:
                    35:3d:19:6f:a8:b7:5d:cd:52:30:62:e3:bf:51:e0:
                    71:aa:62:61:47:7e:03:ff:cc:b0:25:41:40:bb:4b:
                    a0:be:77:53:de:f8:e2:a3:65:02:7f:c6:b3:4d:3a:
                    70:9e:7d:29:91:4d:c3:5b:89:1a:db:ce:36:7f:82:
                    c3:ac:92:48:53:1e:7e:a2:4d:bc:3f:be:15:5b:32:
                    15:2d:e6:38:af:ec:39:4a:53:81:0b:e0:9c:6f:0d:
                    94:af:04:14:68:7f:3c:15:c3:a3:cc:66:ca:10:83:
                    bd:cd:16:c1:93:38:90:84:3f:37:5b:41:81:f1:77:
                    37:af:2e:0d:55:6a:8e:9a:03:f5:fd:90:69:8f:14:
                    20:d9:63:93:19:89:39:93:53:b2:cc:e6:a9:d3:a3:
                    7c:2a:fd:df:c9:df:ff:33:82:aa:47:72:9f:f2:e5:
                    74:31:fd:f7:f5:a3:94:a7:4b:b9:ff:76:f0:99:30:
                    ec:aa:49:40:78:cf:f8:b3:53:71:55:a9:4e:15:77:
                    1c:2f
                Exponent: 65537 (0x10001)
        X509v3 extensions:
            X509v3 Basic Constraints: 
                CA:FALSE
            Netscape Comment: 
                Easy-RSA Generated Certificate
            X509v3 Subject Key Identifier: 
                36:6D:EE:14:92:C6:0B:DD:65:3C:F2:61:BE:6A:2D:8F:C2:77:FC:ED
            X509v3 Authority Key Identifier: 
                keyid:91:A4:1F:AE:2C:87:BB:90:C0:88:DD:63:30:07:C3:53:A5:3A:6A:93
                DirName:/C=GR/ST=Attiki/L=Athens/O=RAWFIE-DI/OU=RAWFIEITUnit/CN=RAWFIE-DI CA/name=EasyRSA/emailAddress=contact@rawfie.eu
                serial:C0:E6:1C:9A:D1:71:B3:B5

            X509v3 Extended Key Usage: 
                TLS Web Client Authentication
            X509v3 Key Usage: 
                Digital Signature
            X509v3 Subject Alternative Name: 
                DNS:dfki.altus.niriis.usv.9
    Signature Algorithm: sha256WithRSAEncryption
         74:b3:58:7d:21:2d:bc:03:25:5a:49:33:54:7b:c5:e8:15:c0:
         50:58:84:1a:0e:fb:b6:6d:89:55:f8:3e:02:c6:7c:97:3c:48:
         b3:5b:dd:4e:ef:bd:0e:ab:94:85:12:35:3a:30:5f:5c:2e:e2:
         20:55:c3:a0:b3:58:dd:cc:b5:95:6c:66:36:2d:26:06:c5:83:
         a5:2d:b3:a2:fb:03:d3:e1:25:08:1a:4c:8c:61:d9:6c:d5:b7:
         8b:ba:8a:6b:52:49:8c:b8:25:01:fe:dc:36:80:f7:6e:97:ba:
         1c:7b:48:84:d1:61:30:64:10:a9:6b:b3:92:2c:60:a4:68:8f:
         f7:b9:33:b2:f2:39:c5:40:c5:35:7c:51:f9:08:8f:29:34:78:
         99:ac:50:11:c7:b7:c6:11:70:c5:3e:67:10:a2:81:fc:f8:03:
         ab:8b:d6:ae:5f:55:9c:6e:de:f1:76:31:fc:56:bb:92:e6:c0:
         ad:d5:b8:d0:27:7e:ac:36:bb:93:ee:cf:0c:16:57:85:98:23:
         d2:50:01:bb:e9:0f:ed:57:f1:08:c5:22:38:1e:af:00:b9:ce:
         51:53:49:43:0d:f8:cb:63:bd:5e:90:e9:49:5c:0a:80:c3:97:
         2a:ec:75:89:81:88:c7:ac:c0:54:be:7c:21:3e:c5:9a:0c:ca:
         88:a6:81:29
-----BEGIN CERTIFICATE-----
MIIFVDCCBDygAwIBAgIBYTANBgkqhkiG9w0BAQsFADCBpTELMAkGA1UEBhMCR1Ix
DzANBgNVBAgTBkF0dGlraTEPMA0GA1UEBxMGQXRoZW5zMRIwEAYDVQQKEwlSQVdG
SUUtREkxFTATBgNVBAsTDFJBV0ZJRUlUVW5pdDEVMBMGA1UEAxMMUkFXRklFLURJ
IENBMRAwDgYDVQQpEwdFYXN5UlNBMSAwHgYJKoZIhvcNAQkBFhFjb250YWN0QHJh
d2ZpZS5ldTAeFw0xNzA0MTIwODQ3NDVaFw0yNzA0MTAwODQ3NDVaMIGwMQswCQYD
VQQGEwJHUjEPMA0GA1UECBMGQXR0aWtpMQ8wDQYDVQQHEwZBdGhlbnMxEjAQBgNV
BAoTCVJBV0ZJRS1ESTEVMBMGA1UECxMMUkFXRklFSVRVbml0MSAwHgYDVQQDExdk
ZmtpLmFsdHVzLm5pcmlpcy51c3YuOTEQMA4GA1UEKRMHRWFzeVJTQTEgMB4GCSqG
SIb3DQEJARYRY29udGFjdEByYXdmaWUuZXUwggEiMA0GCSqGSIb3DQEBAQUAA4IB
DwAwggEKAoIBAQCjadijawWNtgJ9OYnPKyUhev+BTpYzxgEGF6aKFVXVp0lrlHYl
yAeydZWhlysh/gnixBdsBWFoYweQTzU9GW+ot13NUjBi479R4HGqYmFHfgP/zLAl
QUC7S6C+d1Pe+OKjZQJ/xrNNOnCefSmRTcNbiRrbzjZ/gsOskkhTHn6iTbw/vhVb
MhUt5jiv7DlKU4EL4JxvDZSvBBRofzwVw6PMZsoQg73NFsGTOJCEPzdbQYHxdzev
Lg1Vao6aA/X9kGmPFCDZY5MZiTmTU7LM5qnTo3wq/d/J3/8zgqpHcp/y5XQx/ff1
o5SnS7n/dvCZMOyqSUB4z/izU3FVqU4VdxwvAgMBAAGjggGAMIIBfDAJBgNVHRME
AjAAMC0GCWCGSAGG+EIBDQQgFh5FYXN5LVJTQSBHZW5lcmF0ZWQgQ2VydGlmaWNh
dGUwHQYDVR0OBBYEFDZt7hSSxgvdZTzyYb5qLY/Cd/ztMIHaBgNVHSMEgdIwgc+A
FJGkH64sh7uQwIjdYzAHw1OlOmqToYGrpIGoMIGlMQswCQYDVQQGEwJHUjEPMA0G
A1UECBMGQXR0aWtpMQ8wDQYDVQQHEwZBdGhlbnMxEjAQBgNVBAoTCVJBV0ZJRS1E
STEVMBMGA1UECxMMUkFXRklFSVRVbml0MRUwEwYDVQQDEwxSQVdGSUUtREkgQ0Ex
EDAOBgNVBCkTB0Vhc3lSU0ExIDAeBgkqhkiG9w0BCQEWEWNvbnRhY3RAcmF3Zmll
LmV1ggkAwOYcmtFxs7UwEwYDVR0lBAwwCgYIKwYBBQUHAwIwCwYDVR0PBAQDAgeA
MCIGA1UdEQQbMBmCF2Rma2kuYWx0dXMubmlyaWlzLnVzdi45MA0GCSqGSIb3DQEB
CwUAA4IBAQB0s1h9IS28AyVaSTNUe8XoFcBQWIQaDvu2bYlV+D4CxnyXPEizW91O
770Oq5SFEjU6MF9cLuIgVcOgs1jdzLWVbGY2LSYGxYOlLbOi+wPT4SUIGkyMYdls
1beLuoprUkmMuCUB/tw2gPdul7oce0iE0WEwZBCpa7OSLGCkaI/3uTOy8jnFQMU1
fFH5CI8pNHiZrFARx7fGEXDFPmcQooH8+AOri9auX1Wcbt7xdjH8VruS5sCt1bjQ
J36sNruT7s8MFleFmCPSUAG76Q/tV/EIxSI4Hq8Auc5RU0lDDfjLY71ekOlJXAqA
w5cq7HWJgYjHrMBUvnwhPsWaDMqIpoEp
-----END CERTIFICATE-----
