Certificate:
    Data:
        Version: 3 (0x2)
        Serial Number: 68 (0x44)
    Signature Algorithm: sha256WithRSAEncryption
        Issuer: C=GR, ST=Attiki, L=Athens, O=RAWFIE-DI, OU=RAWFIEITUnit, CN=RAWFIE-DI CA/name=EasyRSA/emailAddress=contact@rawfie.eu
        Validity
            Not Before: Apr 12 08:40:31 2017 GMT
            Not After : Apr 10 08:40:31 2027 GMT
        Subject: C=GR, ST=Attiki, L=Athens, O=RAWFIE-DI, OU=RAWFIEITUnit, CN=hmod.altus.niriis.usv.5/name=EasyRSA/emailAddress=contact@rawfie.eu
        Subject Public Key Info:
            Public Key Algorithm: rsaEncryption
                Public-Key: (2048 bit)
                Modulus:
                    00:a5:ad:c4:dd:33:a4:d3:12:57:6f:20:e1:e3:46:
                    c8:30:19:fa:dd:9f:c5:58:0c:60:69:aa:c6:da:bf:
                    c7:cd:12:1f:b2:92:9f:7a:4c:75:77:10:be:a2:79:
                    c3:5f:fc:af:e9:27:40:08:09:64:8f:2c:2e:ff:5a:
                    51:43:6b:95:3c:0a:4d:46:97:7e:cd:47:8f:63:fa:
                    c7:54:ca:4a:4c:16:8e:34:d1:9b:70:f0:7e:7e:17:
                    87:6d:64:1a:64:9d:06:1e:8f:48:3e:c0:da:17:3e:
                    21:62:1b:1b:7b:1b:7d:8c:01:d0:d7:ad:ca:87:45:
                    c3:2f:1b:47:67:c9:6a:ea:43:7d:3e:9a:ea:4f:0a:
                    9f:2b:7b:97:55:48:83:3a:f1:e3:b0:42:c7:08:93:
                    72:41:ad:ba:2f:34:bd:e2:91:d7:23:2d:c8:8a:1b:
                    0a:45:e8:7e:37:e0:9a:ec:c2:c5:76:f0:df:d4:77:
                    5e:b9:53:7c:e2:20:6d:3a:17:90:cd:b5:3c:15:36:
                    de:28:ff:ad:a3:b4:8d:41:1a:64:9a:04:09:09:12:
                    98:fe:8d:b3:7c:e6:9c:c1:9e:10:46:78:0f:3c:6d:
                    ad:b0:71:42:d2:a2:01:2d:20:0f:50:a8:46:b3:29:
                    51:20:ed:42:73:06:6f:13:e0:a5:7d:8c:1b:e6:40:
                    ca:41
                Exponent: 65537 (0x10001)
        X509v3 extensions:
            X509v3 Basic Constraints: 
                CA:FALSE
            Netscape Comment: 
                Easy-RSA Generated Certificate
            X509v3 Subject Key Identifier: 
                2C:5F:02:65:6A:D4:2F:83:6F:E5:1D:51:19:0B:17:20:EE:2B:04:3B
            X509v3 Authority Key Identifier: 
                keyid:91:A4:1F:AE:2C:87:BB:90:C0:88:DD:63:30:07:C3:53:A5:3A:6A:93
                DirName:/C=GR/ST=Attiki/L=Athens/O=RAWFIE-DI/OU=RAWFIEITUnit/CN=RAWFIE-DI CA/name=EasyRSA/emailAddress=contact@rawfie.eu
                serial:C0:E6:1C:9A:D1:71:B3:B5

            X509v3 Extended Key Usage: 
                TLS Web Client Authentication
            X509v3 Key Usage: 
                Digital Signature
            X509v3 Subject Alternative Name: 
                DNS:hmod.altus.niriis.usv.5
    Signature Algorithm: sha256WithRSAEncryption
         7e:d4:53:ea:75:48:7c:5e:a4:83:c7:cf:60:94:70:0d:1d:90:
         3d:65:c0:f4:a5:6a:de:4c:2d:e7:08:f3:00:75:1d:4a:0e:d3:
         8b:ab:f4:ba:d1:d4:ec:06:be:3c:e5:60:5f:e0:47:9d:c3:3a:
         69:80:12:30:d3:a0:a6:9b:1f:af:65:e6:c2:7f:d4:ea:59:e6:
         24:8c:7a:df:01:c8:23:8d:4c:ca:4c:1d:76:48:cb:60:2c:d6:
         92:53:aa:ab:d3:12:64:4c:01:33:f9:49:3d:b4:23:4d:43:1d:
         84:9d:f9:3e:73:fb:1c:d7:46:c1:c8:ba:d8:7e:13:12:60:7e:
         d5:7e:79:b8:d4:c0:0c:11:75:e4:d7:e3:e1:43:15:14:6e:cb:
         63:90:77:46:f7:da:93:e6:ee:3a:86:f4:cb:a6:21:9c:54:02:
         c6:42:9e:a6:95:c4:a2:aa:a2:ca:4b:fd:9e:b3:dd:c2:23:a1:
         fb:e4:d7:2f:03:71:04:91:91:d9:a2:3f:b8:64:dc:da:95:46:
         89:f2:59:8a:11:7a:b2:00:a7:c6:94:27:75:0a:62:f9:93:67:
         54:d0:0c:ad:d4:b1:08:34:10:39:54:d0:65:9f:37:23:b3:f6:
         2d:9e:76:b5:49:25:25:e8:40:11:14:59:3c:38:3e:97:d8:1e:
         7e:1f:29:d5
-----BEGIN CERTIFICATE-----
MIIFVDCCBDygAwIBAgIBRDANBgkqhkiG9w0BAQsFADCBpTELMAkGA1UEBhMCR1Ix
DzANBgNVBAgTBkF0dGlraTEPMA0GA1UEBxMGQXRoZW5zMRIwEAYDVQQKEwlSQVdG
SUUtREkxFTATBgNVBAsTDFJBV0ZJRUlUVW5pdDEVMBMGA1UEAxMMUkFXRklFLURJ
IENBMRAwDgYDVQQpEwdFYXN5UlNBMSAwHgYJKoZIhvcNAQkBFhFjb250YWN0QHJh
d2ZpZS5ldTAeFw0xNzA0MTIwODQwMzFaFw0yNzA0MTAwODQwMzFaMIGwMQswCQYD
VQQGEwJHUjEPMA0GA1UECBMGQXR0aWtpMQ8wDQYDVQQHEwZBdGhlbnMxEjAQBgNV
BAoTCVJBV0ZJRS1ESTEVMBMGA1UECxMMUkFXRklFSVRVbml0MSAwHgYDVQQDExdo
bW9kLmFsdHVzLm5pcmlpcy51c3YuNTEQMA4GA1UEKRMHRWFzeVJTQTEgMB4GCSqG
SIb3DQEJARYRY29udGFjdEByYXdmaWUuZXUwggEiMA0GCSqGSIb3DQEBAQUAA4IB
DwAwggEKAoIBAQClrcTdM6TTEldvIOHjRsgwGfrdn8VYDGBpqsbav8fNEh+ykp96
THV3EL6iecNf/K/pJ0AICWSPLC7/WlFDa5U8Ck1Gl37NR49j+sdUykpMFo400Ztw
8H5+F4dtZBpknQYej0g+wNoXPiFiGxt7G32MAdDXrcqHRcMvG0dnyWrqQ30+mupP
Cp8re5dVSIM68eOwQscIk3JBrbovNL3ikdcjLciKGwpF6H434JrswsV28N/Ud165
U3ziIG06F5DNtTwVNt4o/62jtI1BGmSaBAkJEpj+jbN85pzBnhBGeA88ba2wcULS
ogEtIA9QqEazKVEg7UJzBm8T4KV9jBvmQMpBAgMBAAGjggGAMIIBfDAJBgNVHRME
AjAAMC0GCWCGSAGG+EIBDQQgFh5FYXN5LVJTQSBHZW5lcmF0ZWQgQ2VydGlmaWNh
dGUwHQYDVR0OBBYEFCxfAmVq1C+Db+UdURkLFyDuKwQ7MIHaBgNVHSMEgdIwgc+A
FJGkH64sh7uQwIjdYzAHw1OlOmqToYGrpIGoMIGlMQswCQYDVQQGEwJHUjEPMA0G
A1UECBMGQXR0aWtpMQ8wDQYDVQQHEwZBdGhlbnMxEjAQBgNVBAoTCVJBV0ZJRS1E
STEVMBMGA1UECxMMUkFXRklFSVRVbml0MRUwEwYDVQQDEwxSQVdGSUUtREkgQ0Ex
EDAOBgNVBCkTB0Vhc3lSU0ExIDAeBgkqhkiG9w0BCQEWEWNvbnRhY3RAcmF3Zmll
LmV1ggkAwOYcmtFxs7UwEwYDVR0lBAwwCgYIKwYBBQUHAwIwCwYDVR0PBAQDAgeA
MCIGA1UdEQQbMBmCF2htb2QuYWx0dXMubmlyaWlzLnVzdi41MA0GCSqGSIb3DQEB
CwUAA4IBAQB+1FPqdUh8XqSDx89glHANHZA9ZcD0pWreTC3nCPMAdR1KDtOLq/S6
0dTsBr485WBf4EedwzppgBIw06Cmmx+vZebCf9TqWeYkjHrfAcgjjUzKTB12SMtg
LNaSU6qr0xJkTAEz+Uk9tCNNQx2Enfk+c/sc10bByLrYfhMSYH7Vfnm41MAMEXXk
1+PhQxUUbstjkHdG99qT5u46hvTLpiGcVALGQp6mlcSiqqLKS/2es93CI6H75Ncv
A3EEkZHZoj+4ZNzalUaJ8lmKEXqyAKfGlCd1CmL5k2dU0Ayt1LEINBA5VNBlnzcj
s/Ytnna1SSUl6EARFFk8OD6X2B5+HynV
-----END CERTIFICATE-----
