Certificate:
    Data:
        Version: 3 (0x2)
        Serial Number: 66 (0x42)
    Signature Algorithm: sha256WithRSAEncryption
        Issuer: C=GR, ST=Attiki, L=Athens, O=RAWFIE-DI, OU=RAWFIEITUnit, CN=RAWFIE-DI CA/name=EasyRSA/emailAddress=contact@rawfie.eu
        Validity
            Not Before: Apr 12 08:40:10 2017 GMT
            Not After : Apr 10 08:40:10 2027 GMT
        Subject: C=GR, ST=Attiki, L=Athens, O=RAWFIE-DI, OU=RAWFIEITUnit, CN=hmod.altus.niriis.usv.3/name=EasyRSA/emailAddress=contact@rawfie.eu
        Subject Public Key Info:
            Public Key Algorithm: rsaEncryption
                Public-Key: (2048 bit)
                Modulus:
                    00:b7:72:3d:d9:99:3c:8b:97:d2:70:29:5e:49:85:
                    a4:9a:d8:67:9a:df:65:b8:59:12:b5:f3:6c:34:04:
                    01:f1:57:dc:14:eb:55:9d:e1:34:d3:db:7e:83:3d:
                    75:fc:ad:ff:3a:c8:c3:8a:5b:f9:32:53:72:4f:c3:
                    1a:b1:df:3d:90:ef:68:34:f7:9c:ee:60:66:59:15:
                    55:c2:5c:45:79:55:7b:84:a6:5c:2f:0a:ce:83:a4:
                    91:01:bd:b2:2e:87:26:79:cd:dd:15:13:96:ac:88:
                    fc:2d:81:5c:2f:4d:10:20:da:48:cf:bc:0d:b4:5f:
                    9f:8b:12:11:5c:53:91:3e:97:cf:7e:64:03:a1:c4:
                    a1:9c:0c:0d:5c:57:b0:8d:49:d6:44:b3:e8:a4:c3:
                    71:63:a8:05:2b:79:02:4e:8c:55:8a:15:f6:5d:21:
                    81:1c:89:f8:6e:88:a9:e4:52:1a:a4:3d:60:1c:a3:
                    0c:b0:5d:28:52:a5:3d:51:1c:b1:a0:3e:cb:b4:27:
                    33:b6:03:c7:d5:1c:87:83:cd:0a:91:8d:29:45:8a:
                    9a:50:df:39:ff:c9:78:94:98:7a:5f:2d:f5:73:d7:
                    f8:33:ce:d3:08:a7:07:72:52:ba:f2:d6:89:d2:cd:
                    09:60:7e:2a:dc:a8:e1:93:40:0f:fc:a9:7f:ec:02:
                    a5:19
                Exponent: 65537 (0x10001)
        X509v3 extensions:
            X509v3 Basic Constraints: 
                CA:FALSE
            Netscape Comment: 
                Easy-RSA Generated Certificate
            X509v3 Subject Key Identifier: 
                D9:59:11:FC:BA:95:B2:8D:80:56:38:EA:CC:D4:5E:99:0C:49:9E:EF
            X509v3 Authority Key Identifier: 
                keyid:91:A4:1F:AE:2C:87:BB:90:C0:88:DD:63:30:07:C3:53:A5:3A:6A:93
                DirName:/C=GR/ST=Attiki/L=Athens/O=RAWFIE-DI/OU=RAWFIEITUnit/CN=RAWFIE-DI CA/name=EasyRSA/emailAddress=contact@rawfie.eu
                serial:C0:E6:1C:9A:D1:71:B3:B5

            X509v3 Extended Key Usage: 
                TLS Web Client Authentication
            X509v3 Key Usage: 
                Digital Signature
            X509v3 Subject Alternative Name: 
                DNS:hmod.altus.niriis.usv.3
    Signature Algorithm: sha256WithRSAEncryption
         68:b6:1d:2b:0e:89:4c:a9:ec:4a:19:82:11:ca:e9:6b:da:09:
         e3:02:4f:ee:1e:c4:20:0b:cd:27:ee:de:72:18:67:f8:f4:83:
         56:11:17:e3:e0:be:8f:6e:16:ce:26:9a:4d:f3:3b:ce:00:b9:
         96:f4:33:89:81:cc:19:4c:cc:0d:f1:59:92:5e:11:c7:d3:01:
         26:22:b5:82:06:12:bb:2a:cb:fb:9d:85:c3:bc:61:f7:54:01:
         40:f2:d2:76:7a:a5:a3:e3:a3:04:1c:4c:6c:41:53:69:86:11:
         c6:f1:95:a2:97:66:eb:94:fa:40:a4:1a:87:3f:c9:fa:60:16:
         dd:7d:02:54:8a:09:0d:2e:d2:71:de:72:a5:92:9a:c6:b8:18:
         53:f3:ed:82:56:98:17:ba:c8:6c:78:2e:65:24:bd:7d:46:f9:
         cf:5f:ec:fa:da:6f:b9:9b:35:34:76:2f:37:2a:f2:1e:9c:60:
         a6:8e:b8:aa:0a:fb:03:30:ff:a5:20:32:bd:49:9d:5e:eb:27:
         38:b4:cb:22:6f:cd:c2:10:5b:ed:1e:a3:88:c8:d3:a2:7b:76:
         b8:37:09:f3:1e:2f:00:f8:10:21:ff:a6:0d:8e:bf:19:2b:21:
         f0:ef:6a:3a:31:1c:8b:91:03:34:e8:de:4d:27:85:4a:67:55:
         47:94:2e:a8
-----BEGIN CERTIFICATE-----
MIIFVDCCBDygAwIBAgIBQjANBgkqhkiG9w0BAQsFADCBpTELMAkGA1UEBhMCR1Ix
DzANBgNVBAgTBkF0dGlraTEPMA0GA1UEBxMGQXRoZW5zMRIwEAYDVQQKEwlSQVdG
SUUtREkxFTATBgNVBAsTDFJBV0ZJRUlUVW5pdDEVMBMGA1UEAxMMUkFXRklFLURJ
IENBMRAwDgYDVQQpEwdFYXN5UlNBMSAwHgYJKoZIhvcNAQkBFhFjb250YWN0QHJh
d2ZpZS5ldTAeFw0xNzA0MTIwODQwMTBaFw0yNzA0MTAwODQwMTBaMIGwMQswCQYD
VQQGEwJHUjEPMA0GA1UECBMGQXR0aWtpMQ8wDQYDVQQHEwZBdGhlbnMxEjAQBgNV
BAoTCVJBV0ZJRS1ESTEVMBMGA1UECxMMUkFXRklFSVRVbml0MSAwHgYDVQQDExdo
bW9kLmFsdHVzLm5pcmlpcy51c3YuMzEQMA4GA1UEKRMHRWFzeVJTQTEgMB4GCSqG
SIb3DQEJARYRY29udGFjdEByYXdmaWUuZXUwggEiMA0GCSqGSIb3DQEBAQUAA4IB
DwAwggEKAoIBAQC3cj3ZmTyLl9JwKV5JhaSa2Gea32W4WRK182w0BAHxV9wU61Wd
4TTT236DPXX8rf86yMOKW/kyU3JPwxqx3z2Q72g095zuYGZZFVXCXEV5VXuEplwv
Cs6DpJEBvbIuhyZ5zd0VE5asiPwtgVwvTRAg2kjPvA20X5+LEhFcU5E+l89+ZAOh
xKGcDA1cV7CNSdZEs+ikw3FjqAUreQJOjFWKFfZdIYEcifhuiKnkUhqkPWAcowyw
XShSpT1RHLGgPsu0JzO2A8fVHIeDzQqRjSlFippQ3zn/yXiUmHpfLfVz1/gzztMI
pwdyUrry1onSzQlgfircqOGTQA/8qX/sAqUZAgMBAAGjggGAMIIBfDAJBgNVHRME
AjAAMC0GCWCGSAGG+EIBDQQgFh5FYXN5LVJTQSBHZW5lcmF0ZWQgQ2VydGlmaWNh
dGUwHQYDVR0OBBYEFNlZEfy6lbKNgFY46szUXpkMSZ7vMIHaBgNVHSMEgdIwgc+A
FJGkH64sh7uQwIjdYzAHw1OlOmqToYGrpIGoMIGlMQswCQYDVQQGEwJHUjEPMA0G
A1UECBMGQXR0aWtpMQ8wDQYDVQQHEwZBdGhlbnMxEjAQBgNVBAoTCVJBV0ZJRS1E
STEVMBMGA1UECxMMUkFXRklFSVRVbml0MRUwEwYDVQQDEwxSQVdGSUUtREkgQ0Ex
EDAOBgNVBCkTB0Vhc3lSU0ExIDAeBgkqhkiG9w0BCQEWEWNvbnRhY3RAcmF3Zmll
LmV1ggkAwOYcmtFxs7UwEwYDVR0lBAwwCgYIKwYBBQUHAwIwCwYDVR0PBAQDAgeA
MCIGA1UdEQQbMBmCF2htb2QuYWx0dXMubmlyaWlzLnVzdi4zMA0GCSqGSIb3DQEB
CwUAA4IBAQBoth0rDolMqexKGYIRyulr2gnjAk/uHsQgC80n7t5yGGf49INWERfj
4L6PbhbOJppN8zvOALmW9DOJgcwZTMwN8VmSXhHH0wEmIrWCBhK7Ksv7nYXDvGH3
VAFA8tJ2eqWj46MEHExsQVNphhHG8ZWil2brlPpApBqHP8n6YBbdfQJUigkNLtJx
3nKlkprGuBhT8+2CVpgXushseC5lJL19RvnPX+z62m+5mzU0di83KvIenGCmjriq
CvsDMP+lIDK9SZ1e6yc4tMsib83CEFvtHqOIyNOie3a4NwnzHi8A+BAh/6YNjr8Z
KyHw72o6MRyLkQM06N5NJ4VKZ1VHlC6o
-----END CERTIFICATE-----
