Certificate:
    Data:
        Version: 3 (0x2)
        Serial Number: 64 (0x40)
    Signature Algorithm: sha256WithRSAEncryption
        Issuer: C=GR, ST=Attiki, L=Athens, O=RAWFIE-DI, OU=RAWFIEITUnit, CN=RAWFIE-DI CA/name=EasyRSA/emailAddress=contact@rawfie.eu
        Validity
            Not Before: Apr 12 08:39:54 2017 GMT
            Not After : Apr 10 08:39:54 2027 GMT
        Subject: C=GR, ST=Attiki, L=Athens, O=RAWFIE-DI, OU=RAWFIEITUnit, CN=hmod.altus.niriis.usv.1/name=EasyRSA/emailAddress=contact@rawfie.eu
        Subject Public Key Info:
            Public Key Algorithm: rsaEncryption
                Public-Key: (2048 bit)
                Modulus:
                    00:c9:ef:7f:57:c8:df:2e:7d:a0:97:62:f2:0d:95:
                    1b:b2:e9:87:d2:f5:01:d7:61:b7:d7:89:a0:09:0f:
                    93:b9:6c:37:e3:78:a6:7f:b2:83:6a:55:c8:bc:e3:
                    82:c7:b7:96:18:4d:a2:20:4d:fc:1a:8a:4b:e9:b0:
                    a1:89:c9:e0:13:5b:39:83:00:d7:e6:88:94:f9:d2:
                    45:f0:69:a6:0a:05:56:bc:e5:6f:9d:d1:98:b5:25:
                    5e:7d:3f:15:ef:6c:dc:69:09:18:e0:d6:81:b2:1d:
                    30:e5:e2:45:01:83:00:10:98:30:2e:9d:85:9c:c9:
                    8d:73:76:db:13:45:30:5c:a0:bf:e2:e4:90:55:91:
                    23:7d:bc:8c:c1:1a:96:ad:47:2b:4e:57:0d:e0:94:
                    5b:7b:b5:3c:27:e3:06:a8:38:2f:42:1f:b0:fa:96:
                    b8:4f:18:7e:e9:22:54:58:4b:1e:14:c3:3a:88:96:
                    cf:bd:32:c9:da:02:a6:88:99:72:cd:88:c9:24:e3:
                    c8:bf:4e:d6:7e:00:42:76:80:01:17:e7:f8:02:bb:
                    a0:fb:3d:73:7a:90:2b:5c:87:04:8f:d3:52:bc:17:
                    9e:fe:de:d5:3f:48:2f:8e:0e:bf:23:70:18:37:2f:
                    7c:69:46:e7:3d:ab:ab:ec:30:51:1d:40:ad:bb:db:
                    d0:17
                Exponent: 65537 (0x10001)
        X509v3 extensions:
            X509v3 Basic Constraints: 
                CA:FALSE
            Netscape Comment: 
                Easy-RSA Generated Certificate
            X509v3 Subject Key Identifier: 
                EA:8D:E9:11:59:20:75:CE:1F:BD:B7:39:62:7F:04:01:0E:2B:5D:18
            X509v3 Authority Key Identifier: 
                keyid:91:A4:1F:AE:2C:87:BB:90:C0:88:DD:63:30:07:C3:53:A5:3A:6A:93
                DirName:/C=GR/ST=Attiki/L=Athens/O=RAWFIE-DI/OU=RAWFIEITUnit/CN=RAWFIE-DI CA/name=EasyRSA/emailAddress=contact@rawfie.eu
                serial:C0:E6:1C:9A:D1:71:B3:B5

            X509v3 Extended Key Usage: 
                TLS Web Client Authentication
            X509v3 Key Usage: 
                Digital Signature
            X509v3 Subject Alternative Name: 
                DNS:hmod.altus.niriis.usv.1
    Signature Algorithm: sha256WithRSAEncryption
         2f:0b:53:58:0d:65:26:01:72:1d:2f:9d:a9:3a:45:ef:e7:01:
         e3:a8:54:21:4a:ff:53:2b:3a:4b:06:86:d2:56:ab:ee:dd:07:
         91:7e:ac:58:a4:68:23:0f:2e:ff:31:1b:05:72:75:f6:07:b5:
         00:83:99:91:e7:b6:aa:db:c0:e1:0c:1c:0a:fd:ee:33:f0:dc:
         51:d9:95:e6:08:52:f1:90:90:fa:d2:ac:9a:da:5b:08:3d:3b:
         b0:f3:9a:f7:43:4f:c9:10:fa:bd:35:3b:6f:3e:0b:e3:8d:ff:
         63:03:5f:05:9e:fe:26:b9:fe:fb:2d:5b:79:96:22:d5:39:56:
         71:f7:ff:ea:c2:46:e4:d5:95:ab:7e:a4:0b:08:cb:da:ed:0b:
         ea:3b:e2:99:7c:93:21:7c:44:4f:89:97:3d:15:f1:62:8a:99:
         42:d8:22:0b:9e:55:be:a9:c9:30:a4:58:ab:c9:9b:ad:e4:d4:
         f2:56:2b:b1:05:09:ab:ea:68:55:68:22:4b:61:f8:42:cf:bc:
         92:30:bd:5a:3f:59:82:1e:0d:20:03:61:d6:98:c9:08:f9:fe:
         8b:92:99:bd:dc:44:47:a5:b4:0c:6e:c2:63:49:58:b1:05:97:
         7c:5c:5e:16:a4:4a:13:7c:c6:cf:23:bc:cf:13:57:07:12:b5:
         33:88:2c:32
-----BEGIN CERTIFICATE-----
MIIFVDCCBDygAwIBAgIBQDANBgkqhkiG9w0BAQsFADCBpTELMAkGA1UEBhMCR1Ix
DzANBgNVBAgTBkF0dGlraTEPMA0GA1UEBxMGQXRoZW5zMRIwEAYDVQQKEwlSQVdG
SUUtREkxFTATBgNVBAsTDFJBV0ZJRUlUVW5pdDEVMBMGA1UEAxMMUkFXRklFLURJ
IENBMRAwDgYDVQQpEwdFYXN5UlNBMSAwHgYJKoZIhvcNAQkBFhFjb250YWN0QHJh
d2ZpZS5ldTAeFw0xNzA0MTIwODM5NTRaFw0yNzA0MTAwODM5NTRaMIGwMQswCQYD
VQQGEwJHUjEPMA0GA1UECBMGQXR0aWtpMQ8wDQYDVQQHEwZBdGhlbnMxEjAQBgNV
BAoTCVJBV0ZJRS1ESTEVMBMGA1UECxMMUkFXRklFSVRVbml0MSAwHgYDVQQDExdo
bW9kLmFsdHVzLm5pcmlpcy51c3YuMTEQMA4GA1UEKRMHRWFzeVJTQTEgMB4GCSqG
SIb3DQEJARYRY29udGFjdEByYXdmaWUuZXUwggEiMA0GCSqGSIb3DQEBAQUAA4IB
DwAwggEKAoIBAQDJ739XyN8ufaCXYvINlRuy6YfS9QHXYbfXiaAJD5O5bDfjeKZ/
soNqVci844LHt5YYTaIgTfwaikvpsKGJyeATWzmDANfmiJT50kXwaaYKBVa85W+d
0Zi1JV59PxXvbNxpCRjg1oGyHTDl4kUBgwAQmDAunYWcyY1zdtsTRTBcoL/i5JBV
kSN9vIzBGpatRytOVw3glFt7tTwn4waoOC9CH7D6lrhPGH7pIlRYSx4UwzqIls+9
MsnaAqaImXLNiMkk48i/TtZ+AEJ2gAEX5/gCu6D7PXN6kCtchwSP01K8F57+3tU/
SC+ODr8jcBg3L3xpRuc9q6vsMFEdQK2729AXAgMBAAGjggGAMIIBfDAJBgNVHRME
AjAAMC0GCWCGSAGG+EIBDQQgFh5FYXN5LVJTQSBHZW5lcmF0ZWQgQ2VydGlmaWNh
dGUwHQYDVR0OBBYEFOqN6RFZIHXOH723OWJ/BAEOK10YMIHaBgNVHSMEgdIwgc+A
FJGkH64sh7uQwIjdYzAHw1OlOmqToYGrpIGoMIGlMQswCQYDVQQGEwJHUjEPMA0G
A1UECBMGQXR0aWtpMQ8wDQYDVQQHEwZBdGhlbnMxEjAQBgNVBAoTCVJBV0ZJRS1E
STEVMBMGA1UECxMMUkFXRklFSVRVbml0MRUwEwYDVQQDEwxSQVdGSUUtREkgQ0Ex
EDAOBgNVBCkTB0Vhc3lSU0ExIDAeBgkqhkiG9w0BCQEWEWNvbnRhY3RAcmF3Zmll
LmV1ggkAwOYcmtFxs7UwEwYDVR0lBAwwCgYIKwYBBQUHAwIwCwYDVR0PBAQDAgeA
MCIGA1UdEQQbMBmCF2htb2QuYWx0dXMubmlyaWlzLnVzdi4xMA0GCSqGSIb3DQEB
CwUAA4IBAQAvC1NYDWUmAXIdL52pOkXv5wHjqFQhSv9TKzpLBobSVqvu3QeRfqxY
pGgjDy7/MRsFcnX2B7UAg5mR57aq28DhDBwK/e4z8NxR2ZXmCFLxkJD60qya2lsI
PTuw85r3Q0/JEPq9NTtvPgvjjf9jA18Fnv4muf77LVt5liLVOVZx9//qwkbk1ZWr
fqQLCMva7QvqO+KZfJMhfERPiZc9FfFiiplC2CILnlW+qckwpFiryZut5NTyViux
BQmr6mhVaCJLYfhCz7ySML1aP1mCHg0gA2HWmMkI+f6Lkpm93ERHpbQMbsJjSVix
BZd8XF4WpEoTfMbPI7zPE1cHErUziCwy
-----END CERTIFICATE-----
