Certificate:
    Data:
        Version: 3 (0x2)
        Serial Number: 67 (0x43)
    Signature Algorithm: sha256WithRSAEncryption
        Issuer: C=GR, ST=Attiki, L=Athens, O=RAWFIE-DI, OU=RAWFIEITUnit, CN=RAWFIE-DI CA/name=EasyRSA/emailAddress=contact@rawfie.eu
        Validity
            Not Before: Apr 12 08:40:22 2017 GMT
            Not After : Apr 10 08:40:22 2027 GMT
        Subject: C=GR, ST=Attiki, L=Athens, O=RAWFIE-DI, OU=RAWFIEITUnit, CN=hmod.altus.niriis.usv.4/name=EasyRSA/emailAddress=contact@rawfie.eu
        Subject Public Key Info:
            Public Key Algorithm: rsaEncryption
                Public-Key: (2048 bit)
                Modulus:
                    00:b1:1c:d4:bd:b7:05:86:fd:21:94:7a:96:14:b7:
                    82:dc:44:c7:44:07:54:ce:35:65:d4:ff:78:94:3d:
                    5e:f4:34:1c:c4:e4:14:af:c2:32:a5:e4:8e:42:40:
                    b3:4a:6e:f7:7b:13:07:7b:81:cb:2f:16:08:43:68:
                    7b:6f:c4:a5:96:38:72:e1:4c:f2:c6:0c:c6:0b:ca:
                    25:8d:20:59:02:47:3c:29:dd:12:c0:c8:25:31:2b:
                    ac:14:0c:92:e1:e9:ee:1d:d4:af:01:21:c2:de:cd:
                    8a:18:7b:44:69:b3:8f:4f:cb:6c:b8:49:de:a2:70:
                    aa:d2:3b:d3:38:d2:2b:42:e9:89:31:20:96:29:59:
                    18:14:d0:2c:8b:6a:20:8f:4e:b6:2e:ba:4e:56:8b:
                    3a:9d:e0:86:f0:de:ce:b3:65:43:1f:48:0b:70:39:
                    04:92:72:53:a0:63:a6:cd:26:84:0a:a2:0f:24:bf:
                    df:0d:75:2d:b2:32:9f:93:4f:a0:91:78:45:b8:8c:
                    0f:63:db:46:f9:12:08:6e:d2:1b:c5:b0:5d:95:1f:
                    dd:4c:4a:fe:2a:66:5c:42:0c:75:4d:dc:82:86:e1:
                    a5:8f:ae:52:ad:17:e7:90:99:a3:7b:65:7d:23:dd:
                    10:c8:c4:da:76:32:5f:15:4a:92:d8:6e:8d:05:5d:
                    ac:11
                Exponent: 65537 (0x10001)
        X509v3 extensions:
            X509v3 Basic Constraints: 
                CA:FALSE
            Netscape Comment: 
                Easy-RSA Generated Certificate
            X509v3 Subject Key Identifier: 
                7E:84:29:D5:A5:DD:3E:41:C8:EF:01:C7:B7:C8:04:44:62:1E:60:2A
            X509v3 Authority Key Identifier: 
                keyid:91:A4:1F:AE:2C:87:BB:90:C0:88:DD:63:30:07:C3:53:A5:3A:6A:93
                DirName:/C=GR/ST=Attiki/L=Athens/O=RAWFIE-DI/OU=RAWFIEITUnit/CN=RAWFIE-DI CA/name=EasyRSA/emailAddress=contact@rawfie.eu
                serial:C0:E6:1C:9A:D1:71:B3:B5

            X509v3 Extended Key Usage: 
                TLS Web Client Authentication
            X509v3 Key Usage: 
                Digital Signature
            X509v3 Subject Alternative Name: 
                DNS:hmod.altus.niriis.usv.4
    Signature Algorithm: sha256WithRSAEncryption
         bb:02:07:a6:7c:b5:22:f8:57:6c:7a:13:b3:7d:de:33:60:be:
         22:d1:75:5e:91:fe:70:13:f3:b5:c7:97:85:98:ab:6d:1d:a2:
         56:b9:8e:f6:e6:27:4a:bb:39:38:75:3b:85:81:0a:e2:eb:6b:
         e1:c3:0d:16:c6:0e:5e:73:f6:55:f9:db:13:32:5f:c1:d2:ff:
         06:a6:04:54:7a:9c:3d:28:87:61:d8:23:d4:ac:a7:26:d1:9a:
         bf:83:40:f5:ae:46:13:f8:32:13:40:03:17:67:d7:db:51:05:
         ba:5d:42:b4:67:e3:02:dd:10:aa:b7:9f:4a:06:39:61:05:ad:
         67:a5:9c:27:ef:74:20:c2:0e:f1:5a:47:fa:4e:e2:3c:13:85:
         de:61:a8:55:16:71:f1:78:2c:82:67:68:63:21:c3:dc:48:95:
         9f:81:07:d6:56:fd:99:db:14:f6:43:f8:18:d9:00:35:80:5b:
         fb:83:b1:ad:1b:cb:2a:aa:f9:f4:03:7a:62:27:8e:25:24:04:
         be:73:b9:66:f7:64:35:e6:5e:e9:ab:9c:fd:52:05:0f:a3:17:
         0a:80:1c:dd:29:79:a8:0e:63:f1:d0:3a:29:89:6d:b3:28:2e:
         77:62:75:63:ca:0c:75:63:d8:95:8b:45:bf:b5:da:72:33:73:
         57:90:fd:65
-----BEGIN CERTIFICATE-----
MIIFVDCCBDygAwIBAgIBQzANBgkqhkiG9w0BAQsFADCBpTELMAkGA1UEBhMCR1Ix
DzANBgNVBAgTBkF0dGlraTEPMA0GA1UEBxMGQXRoZW5zMRIwEAYDVQQKEwlSQVdG
SUUtREkxFTATBgNVBAsTDFJBV0ZJRUlUVW5pdDEVMBMGA1UEAxMMUkFXRklFLURJ
IENBMRAwDgYDVQQpEwdFYXN5UlNBMSAwHgYJKoZIhvcNAQkBFhFjb250YWN0QHJh
d2ZpZS5ldTAeFw0xNzA0MTIwODQwMjJaFw0yNzA0MTAwODQwMjJaMIGwMQswCQYD
VQQGEwJHUjEPMA0GA1UECBMGQXR0aWtpMQ8wDQYDVQQHEwZBdGhlbnMxEjAQBgNV
BAoTCVJBV0ZJRS1ESTEVMBMGA1UECxMMUkFXRklFSVRVbml0MSAwHgYDVQQDExdo
bW9kLmFsdHVzLm5pcmlpcy51c3YuNDEQMA4GA1UEKRMHRWFzeVJTQTEgMB4GCSqG
SIb3DQEJARYRY29udGFjdEByYXdmaWUuZXUwggEiMA0GCSqGSIb3DQEBAQUAA4IB
DwAwggEKAoIBAQCxHNS9twWG/SGUepYUt4LcRMdEB1TONWXU/3iUPV70NBzE5BSv
wjKl5I5CQLNKbvd7Ewd7gcsvFghDaHtvxKWWOHLhTPLGDMYLyiWNIFkCRzwp3RLA
yCUxK6wUDJLh6e4d1K8BIcLezYoYe0Rps49Py2y4Sd6icKrSO9M40itC6YkxIJYp
WRgU0CyLaiCPTrYuuk5Wizqd4Ibw3s6zZUMfSAtwOQSSclOgY6bNJoQKog8kv98N
dS2yMp+TT6CReEW4jA9j20b5Eghu0hvFsF2VH91MSv4qZlxCDHVN3IKG4aWPrlKt
F+eQmaN7ZX0j3RDIxNp2Ml8VSpLYbo0FXawRAgMBAAGjggGAMIIBfDAJBgNVHRME
AjAAMC0GCWCGSAGG+EIBDQQgFh5FYXN5LVJTQSBHZW5lcmF0ZWQgQ2VydGlmaWNh
dGUwHQYDVR0OBBYEFH6EKdWl3T5ByO8Bx7fIBERiHmAqMIHaBgNVHSMEgdIwgc+A
FJGkH64sh7uQwIjdYzAHw1OlOmqToYGrpIGoMIGlMQswCQYDVQQGEwJHUjEPMA0G
A1UECBMGQXR0aWtpMQ8wDQYDVQQHEwZBdGhlbnMxEjAQBgNVBAoTCVJBV0ZJRS1E
STEVMBMGA1UECxMMUkFXRklFSVRVbml0MRUwEwYDVQQDEwxSQVdGSUUtREkgQ0Ex
EDAOBgNVBCkTB0Vhc3lSU0ExIDAeBgkqhkiG9w0BCQEWEWNvbnRhY3RAcmF3Zmll
LmV1ggkAwOYcmtFxs7UwEwYDVR0lBAwwCgYIKwYBBQUHAwIwCwYDVR0PBAQDAgeA
MCIGA1UdEQQbMBmCF2htb2QuYWx0dXMubmlyaWlzLnVzdi40MA0GCSqGSIb3DQEB
CwUAA4IBAQC7AgemfLUi+FdsehOzfd4zYL4i0XVekf5wE/O1x5eFmKttHaJWuY72
5idKuzk4dTuFgQri62vhww0Wxg5ec/ZV+dsTMl/B0v8GpgRUepw9KIdh2CPUrKcm
0Zq/g0D1rkYT+DITQAMXZ9fbUQW6XUK0Z+MC3RCqt59KBjlhBa1npZwn73Qgwg7x
Wkf6TuI8E4XeYahVFnHxeCyCZ2hjIcPcSJWfgQfWVv2Z2xT2Q/gY2QA1gFv7g7Gt
G8sqqvn0A3piJ44lJAS+c7lm92Q15l7pq5z9UgUPoxcKgBzdKXmoDmPx0DopiW2z
KC53YnVjygx1Y9iVi0W/tdpyM3NXkP1l
-----END CERTIFICATE-----
