Certificate:
    Data:
        Version: 3 (0x2)
        Serial Number: 65 (0x41)
    Signature Algorithm: sha256WithRSAEncryption
        Issuer: C=GR, ST=Attiki, L=Athens, O=RAWFIE-DI, OU=RAWFIEITUnit, CN=RAWFIE-DI CA/name=EasyRSA/emailAddress=contact@rawfie.eu
        Validity
            Not Before: Apr 12 08:40:02 2017 GMT
            Not After : Apr 10 08:40:02 2027 GMT
        Subject: C=GR, ST=Attiki, L=Athens, O=RAWFIE-DI, OU=RAWFIEITUnit, CN=hmod.altus.niriis.usv.2/name=EasyRSA/emailAddress=contact@rawfie.eu
        Subject Public Key Info:
            Public Key Algorithm: rsaEncryption
                Public-Key: (2048 bit)
                Modulus:
                    00:dd:7b:51:0e:12:ed:0b:ff:e8:20:46:ac:54:dd:
                    de:b8:9c:18:2c:d9:ce:f0:5b:ba:b3:61:90:2c:33:
                    96:16:d9:c3:4a:15:30:8c:36:75:75:42:9d:0b:49:
                    e5:e7:bd:22:56:ca:e9:52:da:73:a2:02:bc:02:0b:
                    8d:5a:ce:10:3f:b8:fc:6b:44:4b:95:5b:a6:e8:81:
                    34:cc:05:5f:2f:47:17:47:dc:0b:05:d0:aa:79:58:
                    5e:b2:2f:bf:16:f8:41:ef:b8:50:fe:89:95:28:ee:
                    dd:f6:16:3b:14:62:27:3f:a5:0d:33:11:41:3f:d9:
                    19:b1:69:35:1b:c5:b5:0b:76:74:56:9c:4c:01:07:
                    f8:3b:5c:02:50:ba:85:e7:57:b4:a7:0c:c1:3f:53:
                    9b:73:18:a5:9e:85:28:cb:8a:09:e5:76:76:21:72:
                    f6:b8:5b:cf:fc:2f:41:ed:94:d4:52:23:1e:96:83:
                    fa:bd:78:1e:45:a9:bd:99:ec:f4:cb:be:e3:dd:c2:
                    bd:8d:43:95:a3:82:94:b7:92:57:a6:91:f0:02:8a:
                    12:63:85:59:6f:f1:44:d1:90:2c:c5:44:df:00:5c:
                    30:b2:80:64:fb:ba:b0:67:1d:41:53:6d:12:91:b8:
                    50:c3:10:00:4b:2b:50:1f:b9:64:90:3f:13:6f:76:
                    19:d9
                Exponent: 65537 (0x10001)
        X509v3 extensions:
            X509v3 Basic Constraints: 
                CA:FALSE
            Netscape Comment: 
                Easy-RSA Generated Certificate
            X509v3 Subject Key Identifier: 
                E0:B8:DD:25:92:A3:ED:FE:3F:27:A0:CB:82:DF:F1:F1:8C:C3:E9:5D
            X509v3 Authority Key Identifier: 
                keyid:91:A4:1F:AE:2C:87:BB:90:C0:88:DD:63:30:07:C3:53:A5:3A:6A:93
                DirName:/C=GR/ST=Attiki/L=Athens/O=RAWFIE-DI/OU=RAWFIEITUnit/CN=RAWFIE-DI CA/name=EasyRSA/emailAddress=contact@rawfie.eu
                serial:C0:E6:1C:9A:D1:71:B3:B5

            X509v3 Extended Key Usage: 
                TLS Web Client Authentication
            X509v3 Key Usage: 
                Digital Signature
            X509v3 Subject Alternative Name: 
                DNS:hmod.altus.niriis.usv.2
    Signature Algorithm: sha256WithRSAEncryption
         34:39:70:d9:68:9e:e0:64:e1:33:b4:02:df:08:d0:c1:57:78:
         62:1d:e6:d5:e8:c9:c3:2a:b2:62:89:de:b9:dc:04:6a:43:b5:
         fa:68:3c:95:4d:8a:d6:b9:60:77:d2:79:5a:62:3b:5c:06:0b:
         71:7f:e6:c9:e2:c2:ad:55:33:1f:f1:f2:cc:01:04:da:25:74:
         5e:67:94:2d:40:f9:77:e9:df:6f:95:e9:57:38:bc:3c:04:c3:
         3d:ca:29:ed:9c:f5:a4:4d:d6:6c:c7:c9:53:ea:c5:15:5b:59:
         32:d0:aa:fb:40:3f:3f:b4:fc:55:fb:a7:ae:16:f8:d7:28:61:
         af:58:a2:5b:90:ea:58:75:34:58:68:6c:6f:9f:78:31:cd:01:
         e6:a5:37:61:53:65:67:06:20:2d:6e:d7:cc:69:3a:52:e0:72:
         98:6e:38:2c:2d:d7:a4:53:5c:13:be:50:f6:d4:87:53:a4:13:
         1b:f2:da:9c:84:c1:d2:50:02:d5:ff:fa:00:ac:a5:c6:df:b9:
         e8:04:79:3a:5b:7f:a2:74:ff:41:a1:5c:51:fe:cf:a6:0e:2d:
         14:0e:f9:c3:60:d6:9a:67:80:74:96:b3:7a:96:8e:de:e1:33:
         29:74:8b:26:4f:b4:db:ad:3b:2f:27:e7:e0:91:e9:95:86:53:
         2c:29:17:0f
-----BEGIN CERTIFICATE-----
MIIFVDCCBDygAwIBAgIBQTANBgkqhkiG9w0BAQsFADCBpTELMAkGA1UEBhMCR1Ix
DzANBgNVBAgTBkF0dGlraTEPMA0GA1UEBxMGQXRoZW5zMRIwEAYDVQQKEwlSQVdG
SUUtREkxFTATBgNVBAsTDFJBV0ZJRUlUVW5pdDEVMBMGA1UEAxMMUkFXRklFLURJ
IENBMRAwDgYDVQQpEwdFYXN5UlNBMSAwHgYJKoZIhvcNAQkBFhFjb250YWN0QHJh
d2ZpZS5ldTAeFw0xNzA0MTIwODQwMDJaFw0yNzA0MTAwODQwMDJaMIGwMQswCQYD
VQQGEwJHUjEPMA0GA1UECBMGQXR0aWtpMQ8wDQYDVQQHEwZBdGhlbnMxEjAQBgNV
BAoTCVJBV0ZJRS1ESTEVMBMGA1UECxMMUkFXRklFSVRVbml0MSAwHgYDVQQDExdo
bW9kLmFsdHVzLm5pcmlpcy51c3YuMjEQMA4GA1UEKRMHRWFzeVJTQTEgMB4GCSqG
SIb3DQEJARYRY29udGFjdEByYXdmaWUuZXUwggEiMA0GCSqGSIb3DQEBAQUAA4IB
DwAwggEKAoIBAQDde1EOEu0L/+ggRqxU3d64nBgs2c7wW7qzYZAsM5YW2cNKFTCM
NnV1Qp0LSeXnvSJWyulS2nOiArwCC41azhA/uPxrREuVW6bogTTMBV8vRxdH3AsF
0Kp5WF6yL78W+EHvuFD+iZUo7t32FjsUYic/pQ0zEUE/2RmxaTUbxbULdnRWnEwB
B/g7XAJQuoXnV7SnDME/U5tzGKWehSjLignldnYhcva4W8/8L0HtlNRSIx6Wg/q9
eB5Fqb2Z7PTLvuPdwr2NQ5WjgpS3klemkfACihJjhVlv8UTRkCzFRN8AXDCygGT7
urBnHUFTbRKRuFDDEABLK1AfuWSQPxNvdhnZAgMBAAGjggGAMIIBfDAJBgNVHRME
AjAAMC0GCWCGSAGG+EIBDQQgFh5FYXN5LVJTQSBHZW5lcmF0ZWQgQ2VydGlmaWNh
dGUwHQYDVR0OBBYEFOC43SWSo+3+Pyegy4Lf8fGMw+ldMIHaBgNVHSMEgdIwgc+A
FJGkH64sh7uQwIjdYzAHw1OlOmqToYGrpIGoMIGlMQswCQYDVQQGEwJHUjEPMA0G
A1UECBMGQXR0aWtpMQ8wDQYDVQQHEwZBdGhlbnMxEjAQBgNVBAoTCVJBV0ZJRS1E
STEVMBMGA1UECxMMUkFXRklFSVRVbml0MRUwEwYDVQQDEwxSQVdGSUUtREkgQ0Ex
EDAOBgNVBCkTB0Vhc3lSU0ExIDAeBgkqhkiG9w0BCQEWEWNvbnRhY3RAcmF3Zmll
LmV1ggkAwOYcmtFxs7UwEwYDVR0lBAwwCgYIKwYBBQUHAwIwCwYDVR0PBAQDAgeA
MCIGA1UdEQQbMBmCF2htb2QuYWx0dXMubmlyaWlzLnVzdi4yMA0GCSqGSIb3DQEB
CwUAA4IBAQA0OXDZaJ7gZOEztALfCNDBV3hiHebV6MnDKrJiid653ARqQ7X6aDyV
TYrWuWB30nlaYjtcBgtxf+bJ4sKtVTMf8fLMAQTaJXReZ5QtQPl36d9vlelXOLw8
BMM9yintnPWkTdZsx8lT6sUVW1ky0Kr7QD8/tPxV+6euFvjXKGGvWKJbkOpYdTRY
aGxvn3gxzQHmpTdhU2VnBiAtbtfMaTpS4HKYbjgsLdekU1wTvlD21IdTpBMb8tqc
hMHSUALV//oArKXG37noBHk6W3+idP9BoVxR/s+mDi0UDvnDYNaaZ4B0lrN6lo7e
4TMpdIsmT7TbrTsvJ+fgkemVhlMsKRcP
-----END CERTIFICATE-----
