Certificate:
    Data:
        Version: 3 (0x2)
        Serial Number: 70 (0x46)
    Signature Algorithm: sha256WithRSAEncryption
        Issuer: C=GR, ST=Attiki, L=Athens, O=RAWFIE-DI, OU=RAWFIEITUnit, CN=RAWFIE-DI CA/name=EasyRSA/emailAddress=contact@rawfie.eu
        Validity
            Not Before: Apr 12 08:40:50 2017 GMT
            Not After : Apr 10 08:40:50 2027 GMT
        Subject: C=GR, ST=Attiki, L=Athens, O=RAWFIE-DI, OU=RAWFIEITUnit, CN=hmod.altus.niriis.usv.7/name=EasyRSA/emailAddress=contact@rawfie.eu
        Subject Public Key Info:
            Public Key Algorithm: rsaEncryption
                Public-Key: (2048 bit)
                Modulus:
                    00:a5:9b:50:6a:df:6b:de:2a:4e:b0:88:f9:f1:4e:
                    3e:2c:ab:19:7d:cc:e0:2a:a8:b3:3b:a5:ea:95:29:
                    35:11:8b:5c:34:01:0c:04:42:f0:19:a5:56:e6:96:
                    43:1c:6d:fc:eb:e0:47:db:b2:c0:8d:1f:a2:40:dc:
                    1d:36:e6:07:bb:23:b8:47:5e:44:1b:ba:00:e8:ea:
                    44:4c:71:60:c1:93:0c:82:d7:51:96:c8:f4:7c:9f:
                    24:fb:01:a8:24:77:f7:34:a7:92:97:9a:cb:63:05:
                    33:ff:9b:3f:ce:64:99:f2:53:e0:b8:27:fa:60:52:
                    f1:9a:0f:10:0b:25:97:7d:d9:7a:9d:b2:36:29:00:
                    0f:bd:a1:50:c5:9c:7c:98:f6:33:f4:23:82:15:87:
                    35:54:84:ad:55:f0:c6:3a:eb:7c:f8:36:1e:20:3e:
                    ef:43:df:b6:c8:94:01:c3:21:f3:ba:c8:e2:29:b4:
                    fe:6e:67:7e:0c:fd:80:56:42:a0:90:5c:48:c7:3b:
                    fb:82:df:d9:54:cc:c0:5e:52:f5:7b:0f:74:a8:40:
                    da:cf:4b:13:98:dc:0b:7d:af:f6:69:0f:f8:8b:a2:
                    72:80:61:41:b4:cd:9a:6a:97:e4:01:ca:68:9e:58:
                    0f:1c:92:29:56:a2:b2:28:58:a8:1b:0e:e3:59:4c:
                    31:3d
                Exponent: 65537 (0x10001)
        X509v3 extensions:
            X509v3 Basic Constraints: 
                CA:FALSE
            Netscape Comment: 
                Easy-RSA Generated Certificate
            X509v3 Subject Key Identifier: 
                90:D6:EC:E0:31:C2:7A:F9:B7:C3:94:86:AE:E7:68:4B:24:EC:4B:B7
            X509v3 Authority Key Identifier: 
                keyid:91:A4:1F:AE:2C:87:BB:90:C0:88:DD:63:30:07:C3:53:A5:3A:6A:93
                DirName:/C=GR/ST=Attiki/L=Athens/O=RAWFIE-DI/OU=RAWFIEITUnit/CN=RAWFIE-DI CA/name=EasyRSA/emailAddress=contact@rawfie.eu
                serial:C0:E6:1C:9A:D1:71:B3:B5

            X509v3 Extended Key Usage: 
                TLS Web Client Authentication
            X509v3 Key Usage: 
                Digital Signature
            X509v3 Subject Alternative Name: 
                DNS:hmod.altus.niriis.usv.7
    Signature Algorithm: sha256WithRSAEncryption
         70:c5:56:e1:9f:ec:55:ba:88:4c:f7:ee:8f:cf:b4:c4:fa:0f:
         7d:14:1f:3a:5d:68:f1:96:36:56:30:d2:9a:c4:fe:59:58:d3:
         e6:a3:5b:2d:91:da:14:88:e9:1d:da:0a:8b:80:a8:24:be:89:
         e6:29:a7:a3:0b:53:69:14:35:ed:45:3d:ab:a8:14:03:e3:f0:
         41:b6:2b:72:73:e4:af:4d:20:32:a2:a8:c2:d5:52:be:58:28:
         42:04:4e:f3:71:0f:fb:20:89:1a:c3:c4:c4:8f:e2:ba:aa:49:
         64:39:51:5c:3c:ee:0b:fe:7c:e9:f5:ab:91:a2:ed:10:bf:f0:
         36:15:94:61:b6:b4:7a:e6:28:dc:51:d5:bb:93:0b:89:d7:37:
         d4:dc:1c:37:fc:c7:8a:b1:f5:cd:be:e2:70:4b:5b:1c:4a:e4:
         c0:f0:ce:2a:6e:74:2b:ad:88:ad:03:3c:bf:d9:ee:66:c2:db:
         0b:8f:93:ee:a3:e8:0e:ff:4c:fc:4b:5a:16:64:ca:dc:3c:0d:
         91:be:f4:b9:bb:59:56:6f:65:56:04:89:46:a9:fc:c0:42:bd:
         b1:45:d1:3e:61:ac:58:96:eb:a6:66:e8:0a:b7:12:00:8c:38:
         80:01:96:0b:f0:fc:4d:78:cd:e9:65:d8:10:ab:5f:7f:cb:4b:
         2a:7f:6a:56
-----BEGIN CERTIFICATE-----
MIIFVDCCBDygAwIBAgIBRjANBgkqhkiG9w0BAQsFADCBpTELMAkGA1UEBhMCR1Ix
DzANBgNVBAgTBkF0dGlraTEPMA0GA1UEBxMGQXRoZW5zMRIwEAYDVQQKEwlSQVdG
SUUtREkxFTATBgNVBAsTDFJBV0ZJRUlUVW5pdDEVMBMGA1UEAxMMUkFXRklFLURJ
IENBMRAwDgYDVQQpEwdFYXN5UlNBMSAwHgYJKoZIhvcNAQkBFhFjb250YWN0QHJh
d2ZpZS5ldTAeFw0xNzA0MTIwODQwNTBaFw0yNzA0MTAwODQwNTBaMIGwMQswCQYD
VQQGEwJHUjEPMA0GA1UECBMGQXR0aWtpMQ8wDQYDVQQHEwZBdGhlbnMxEjAQBgNV
BAoTCVJBV0ZJRS1ESTEVMBMGA1UECxMMUkFXRklFSVRVbml0MSAwHgYDVQQDExdo
bW9kLmFsdHVzLm5pcmlpcy51c3YuNzEQMA4GA1UEKRMHRWFzeVJTQTEgMB4GCSqG
SIb3DQEJARYRY29udGFjdEByYXdmaWUuZXUwggEiMA0GCSqGSIb3DQEBAQUAA4IB
DwAwggEKAoIBAQClm1Bq32veKk6wiPnxTj4sqxl9zOAqqLM7peqVKTURi1w0AQwE
QvAZpVbmlkMcbfzr4EfbssCNH6JA3B025ge7I7hHXkQbugDo6kRMcWDBkwyC11GW
yPR8nyT7Aagkd/c0p5KXmstjBTP/mz/OZJnyU+C4J/pgUvGaDxALJZd92XqdsjYp
AA+9oVDFnHyY9jP0I4IVhzVUhK1V8MY663z4Nh4gPu9D37bIlAHDIfO6yOIptP5u
Z34M/YBWQqCQXEjHO/uC39lUzMBeUvV7D3SoQNrPSxOY3At9r/ZpD/iLonKAYUG0
zZpql+QBymieWA8ckilWorIoWKgbDuNZTDE9AgMBAAGjggGAMIIBfDAJBgNVHRME
AjAAMC0GCWCGSAGG+EIBDQQgFh5FYXN5LVJTQSBHZW5lcmF0ZWQgQ2VydGlmaWNh
dGUwHQYDVR0OBBYEFJDW7OAxwnr5t8OUhq7naEsk7Eu3MIHaBgNVHSMEgdIwgc+A
FJGkH64sh7uQwIjdYzAHw1OlOmqToYGrpIGoMIGlMQswCQYDVQQGEwJHUjEPMA0G
A1UECBMGQXR0aWtpMQ8wDQYDVQQHEwZBdGhlbnMxEjAQBgNVBAoTCVJBV0ZJRS1E
STEVMBMGA1UECxMMUkFXRklFSVRVbml0MRUwEwYDVQQDEwxSQVdGSUUtREkgQ0Ex
EDAOBgNVBCkTB0Vhc3lSU0ExIDAeBgkqhkiG9w0BCQEWEWNvbnRhY3RAcmF3Zmll
LmV1ggkAwOYcmtFxs7UwEwYDVR0lBAwwCgYIKwYBBQUHAwIwCwYDVR0PBAQDAgeA
MCIGA1UdEQQbMBmCF2htb2QuYWx0dXMubmlyaWlzLnVzdi43MA0GCSqGSIb3DQEB
CwUAA4IBAQBwxVbhn+xVuohM9+6Pz7TE+g99FB86XWjxljZWMNKaxP5ZWNPmo1st
kdoUiOkd2gqLgKgkvonmKaejC1NpFDXtRT2rqBQD4/BBtityc+SvTSAyoqjC1VK+
WChCBE7zcQ/7IIkaw8TEj+K6qklkOVFcPO4L/nzp9auRou0Qv/A2FZRhtrR65ijc
UdW7kwuJ1zfU3Bw3/MeKsfXNvuJwS1scSuTA8M4qbnQrrYitAzy/2e5mwtsLj5Pu
o+gO/0z8S1oWZMrcPA2RvvS5u1lWb2VWBIlGqfzAQr2xRdE+YaxYluumZugKtxIA
jDiAAZYL8PxNeM3pZdgQq19/y0sqf2pW
-----END CERTIFICATE-----
